; Function Attrs: mustprogress uwtable
define void @_ZN3zmq14session_base_t8rollbackEv(ptr noundef nonnull readonly align 8 captures(none) dereferenceable(1624) %0) local_unnamed_addr #0 align 2 {
  %2 = getelementptr inbounds nuw i8, ptr %0, i64 1480
  %3 = load ptr, ptr %2, align 8, !tbaa !101
  %.not = icmp eq ptr %3, null
  br i1 %.not, label %5, label %4

4:                                                ; preds = %1
  tail call void @_ZNK3zmq6pipe_t8rollbackEv(ptr noundef nonnull align 8 dereferenceable(328) %3)
  br label %5

5:                                                ; preds = %4, %1
  ret void
}